; Function Attrs: mustprogress uwtable
define void @_ZN6icu_7516DateIntervalInfo26setFallbackIntervalPatternERKNS_13UnicodeStringER10UErrorCode(ptr noundef nonnull align 8 dereferenceable(88) %this, ptr noundef nonnull align 8 dereferenceable(64) %fallbackPattern, ptr nocapture noundef nonnull align 4 dereferenceable(4) %status) local_unnamed_addr #1 align 2 {
entry:
  %0 = load i32, ptr %status, align 4
  %cmp.i = icmp slt i32 %0, 1
  br i1 %cmp.i, label %if.end, label %return

if.end:                                           ; preds = %entry
  %fUnion.i.i.phi.trans.insert.i = getelementptr inbounds i8, ptr %fallbackPattern, i64 8
  %.pre.i = load i16, ptr %fUnion.i.i.phi.trans.insert.i, align 8
  %cmp.i.i.i.i = icmp slt i16 %.pre.i, 0
  %1 = ashr i16 %.pre.i, 5
  %shr.i.i.i.i = sext i16 %1 to i32
  %fLength.i.i.i = getelementptr inbounds i8, ptr %fallbackPattern, i64 12
  %2 = load i32, ptr %fLength.i.i.i, align 4
  %cond.i.i.i = select i1 %cmp.i.i.i.i, i32 %2, i32 %shr.i.i.i.i
  %spec.select.i = tail call i32 @llvm.smin.i32(i32 %cond.i.i.i, i32 0)
  %sub.i = sub nsw i32 %cond.i.i.i, %spec.select.i
  %call2.i = tail call noundef i32 @_ZNK6icu_7513UnicodeString7indexOfEPKDsiiii(ptr noundef nonnull align 8 dereferenceable(64) %fallbackPattern, ptr noundef nonnull @_ZN6icu_75L13gFirstPatternE, i32 noundef 0, i32 noundef 3, i32 noundef %spec.select.i, i32 noundef %sub.i)
  %.pre.i7 = load i16, ptr %fUnion.i.i.phi.trans.insert.i, align 8
  %cmp.i.i.i.i8 = icmp slt i16 %.pre.i7, 0
  %3 = ashr i16 %.pre.i7, 5
  %shr.i.i.i.i9 = sext i16 %3 to i32
  %4 = load i32, ptr %fLength.i.i.i, align 4
  %cond.i.i.i11 = select i1 %cmp.i.i.i.i8, i32 %4, i32 %shr.i.i.i.i9
  %spec.select.i12 = tail call i32 @llvm.smin.i32(i32 %cond.i.i.i11, i32 0)
  %sub.i15 = sub nsw i32 %cond.i.i.i11, %spec.select.i12
  %call2.i16 = tail call noundef i32 @_ZNK6icu_7513UnicodeString7indexOfEPKDsiiii(ptr noundef nonnull align 8 dereferenceable(64) %fallbackPattern, ptr noundef nonnull @_ZN6icu_75L14gSecondPatternE, i32 noundef 0, i32 noundef 3, i32 noundef %spec.select.i12, i32 noundef %sub.i15)
  %cmp = icmp eq i32 %call2.i, -1
  %cmp4 = icmp eq i32 %call2.i16, -1
  %or.cond = or i1 %cmp, %cmp4
  br i1 %or.cond, label %if.then5, label %if.end6

if.then5:                                         ; preds = %if.end
  store i32 1, ptr %status, align 4
  br label %return

if.end6:                                          ; preds = %if.end
  %cmp7 = icmp sgt i32 %call2.i, %call2.i16
  br i1 %cmp7, label %if.then8, label %if.end9

if.then8:                                         ; preds = %if.end6
  %fFirstDateInPtnIsLaterDate = getelementptr inbounds i8, ptr %this, i64 72
  store i8 1, ptr %fFirstDateInPtnIsLaterDate, align 8
  br label %if.end9

if.end9:                                          ; preds = %if.then8, %if.end6
  %fFallbackIntervalPattern = getelementptr inbounds i8, ptr %this, i64 8
  %call10 = tail call noundef nonnull align 8 dereferenceable(64) ptr @_ZN6icu_7513UnicodeStringaSERKS0_(ptr noundef nonnull align 8 dereferenceable(64) %fFallbackIntervalPattern, ptr noundef nonnull align 8 dereferenceable(64) %fallbackPattern)
  br label %return

return:                                           ; preds = %entry, %if.end9, %if.then5
  ret void
}